target datalayout = "e-m:e-p270:32:32-p271:32:32-p272:64:64-i64:64-i128:128-f80:128-n8:16:32:64-S128"
target triple = "x86_64-unknown-linux-gnu"

%"class.std::set.11" = type { %"class.std::_Rb_tree.12" }
%"class.std::_Rb_tree.12" = type { %"struct.std::_Rb_tree<QuantLib::Observer *, QuantLib::Observer *, std::_Identity<QuantLib::Observer *>, std::less<QuantLib::Observer *>>::_Rb_tree_impl" }
%"struct.std::_Rb_tree<QuantLib::Observer *, QuantLib::Observer *, std::_Identity<QuantLib::Observer *>, std::less<QuantLib::Observer *>>::_Rb_tree_impl" = type { [8 x i8], %"struct.std::_Rb_tree_header" }
%"struct.std::_Rb_tree_header" = type { %"struct.std::_Rb_tree_node_base", i64 }
%"struct.std::_Rb_tree_node_base" = type { i32, ptr, ptr, ptr }
%"class.boost::detail::shared_count" = type { ptr }
%"class.std::set" = type { %"class.std::_Rb_tree" }
%"class.std::_Rb_tree" = type { %"struct.std::_Rb_tree<boost::shared_ptr<QuantLib::Observable>, boost::shared_ptr<QuantLib::Observable>, std::_Identity<boost::shared_ptr<QuantLib::Observable>>, std::less<boost::shared_ptr<QuantLib::Observable>>>::_Rb_tree_impl" }
%"struct.std::_Rb_tree<boost::shared_ptr<QuantLib::Observable>, boost::shared_ptr<QuantLib::Observable>, std::_Identity<boost::shared_ptr<QuantLib::Observable>>, std::less<boost::shared_ptr<QuantLib::Observable>>>::_Rb_tree_impl" = type { [8 x i8], %"struct.std::_Rb_tree_header" }
%"class.QuantLib::Observable" = type { ptr, %"class.std::set.11" }
%"class.boost::shared_ptr.29" = type { ptr, %"class.boost::detail::shared_count" }
%"class.QuantLib::Observer" = type { ptr, %"class.std::set" }
%"class.QuantLib::Handle.39" = type { %"class.boost::shared_ptr.40" }
%"class.boost::shared_ptr.40" = type { ptr, %"class.boost::detail::shared_count" }
%"class.QuantLib::AnalyticH1HWEngine" = type { %"class.QuantLib::AnalyticHestonHullWhiteEngine", double }
%"class.QuantLib::AnalyticHestonHullWhiteEngine" = type { %"class.QuantLib::AnalyticHestonEngine", %"class.boost::shared_ptr.29", double, double, double }
%"class.QuantLib::AnalyticHestonEngine" = type { %"class.QuantLib::GenericModelEngine", i64, i32, %"class.boost::shared_ptr.43", double, double }
%"class.QuantLib::GenericModelEngine" = type { %"class.QuantLib::GenericEngine", %"class.QuantLib::Handle.39" }
%"class.QuantLib::GenericEngine" = type { %"class.QuantLib::PricingEngine", %"class.QuantLib::Observer", %"class.QuantLib::Option::arguments", %"class.QuantLib::OneAssetOption::results" }
%"class.QuantLib::PricingEngine" = type { %"class.QuantLib::Observable" }
%"class.QuantLib::Option::arguments" = type { %"class.QuantLib::PricingEngine::arguments", %"class.boost::shared_ptr.25", %"class.boost::shared_ptr.26" }
%"class.QuantLib::PricingEngine::arguments" = type { ptr }
%"class.boost::shared_ptr.25" = type { ptr, %"class.boost::detail::shared_count" }
%"class.boost::shared_ptr.26" = type { ptr, %"class.boost::detail::shared_count" }
%"class.QuantLib::OneAssetOption::results" = type { %"class.QuantLib::Instrument::results", %"class.QuantLib::Greeks", %"class.QuantLib::MoreGreeks" }
%"class.QuantLib::Instrument::results" = type { %"class.QuantLib::PricingEngine::results", double, double, %"class.QuantLib::Date", %"class.std::map" }
%"class.QuantLib::PricingEngine::results" = type { ptr }
%"class.QuantLib::Date" = type { i64 }
%"class.std::map" = type { %"class.std::_Rb_tree.19" }
%"class.std::_Rb_tree.19" = type { %"struct.std::_Rb_tree<std::__cxx11::basic_string<char>, std::pair<const std::__cxx11::basic_string<char>, boost::any>, std::_Select1st<std::pair<const std::__cxx11::basic_string<char>, boost::any>>, std::less<std::__cxx11::basic_string<char>>>::_Rb_tree_impl" }
%"struct.std::_Rb_tree<std::__cxx11::basic_string<char>, std::pair<const std::__cxx11::basic_string<char>, boost::any>, std::_Select1st<std::pair<const std::__cxx11::basic_string<char>, boost::any>>, std::less<std::__cxx11::basic_string<char>>>::_Rb_tree_impl" = type { [8 x i8], %"struct.std::_Rb_tree_header" }
%"class.QuantLib::Greeks" = type { %"class.QuantLib::PricingEngine::results", double, double, double, double, double, double }
%"class.QuantLib::MoreGreeks" = type { %"class.QuantLib::PricingEngine::results", double, double, double, double, double }
%"class.boost::shared_ptr.43" = type { ptr, %"class.boost::detail::shared_count" }
%"class.boost::detail::sp_counted_base" = type { ptr, i32, i32 }

; Function Attrs: inlinehint mustprogress nounwind uwtable
define linkonce_odr void @_ZN5boost6detail16atomic_incrementEPj(ptr noundef %pw) #5 comdat {
entry:
  %pw.addr = alloca ptr, align 8
  %.atomictmp = alloca i32, align 4
  %atomic-temp = alloca i32, align 4
  store ptr %pw, ptr %pw.addr, align 8, !tbaa !3
  %0 = load ptr, ptr %pw.addr, align 8, !tbaa !3
  store i32 1, ptr %.atomictmp, align 4, !tbaa !55
  %1 = load i32, ptr %.atomictmp, align 4
  %2 = atomicrmw add ptr %0, i32 %1 monotonic, align 4
  store i32 %2, ptr %atomic-temp, align 4
  ret void
}

; Function Attrs: mustprogress uwtable
define linkonce_odr void @_ZN5boost6detail15sp_counted_base12add_ref_copyEv(ptr noundef nonnull align 8 dereferenceable(16) %this) #1 comdat align 2 {
entry:
  %this.addr = alloca ptr, align 8
  store ptr %this, ptr %this.addr, align 8, !tbaa !3
  %this1 = load ptr, ptr %this.addr, align 8
  %use_count_ = getelementptr inbounds nuw %"class.boost::detail::sp_counted_base", ptr %this1, i32 0, i32 1
  call void @_ZN5boost6detail16atomic_incrementEPj(ptr noundef %use_count_)
  ret void
}

; Function Attrs: mustprogress nounwind uwtable
define linkonce_odr void @_ZN5boost6detail12shared_countC2ERKS1_(ptr noundef nonnull align 8 dereferenceable(8) %this, ptr noundef nonnull align 8 dereferenceable(8) %r) unnamed_addr #3 comdat align 2 personality ptr @__gxx_personality_v0 {
entry:
  %this.addr = alloca ptr, align 8
  %r.addr = alloca ptr, align 8
  store ptr %this, ptr %this.addr, align 8, !tbaa !3
  store ptr %r, ptr %r.addr, align 8, !tbaa !3
  %this1 = load ptr, ptr %this.addr, align 8
  %pi_ = getelementptr inbounds nuw %"class.boost::detail::shared_count", ptr %this1, i32 0, i32 0
  %0 = load ptr, ptr %r.addr, align 8, !tbaa !3
  %pi_2 = getelementptr inbounds nuw %"class.boost::detail::shared_count", ptr %0, i32 0, i32 0
  %1 = load ptr, ptr %pi_2, align 8, !tbaa !100
  store ptr %1, ptr %pi_, align 8, !tbaa !100
  %pi_3 = getelementptr inbounds nuw %"class.boost::detail::shared_count", ptr %this1, i32 0, i32 0
  %2 = load ptr, ptr %pi_3, align 8, !tbaa !100
  %cmp = icmp ne ptr %2, null
  br i1 %cmp, label %if.then, label %if.end

if.then:                                          ; preds = %entry
  %pi_4 = getelementptr inbounds nuw %"class.boost::detail::shared_count", ptr %this1, i32 0, i32 0
  %3 = load ptr, ptr %pi_4, align 8, !tbaa !100
  invoke void @_ZN5boost6detail15sp_counted_base12add_ref_copyEv(ptr noundef nonnull align 8 dereferenceable(16) %3)
          to label %invoke.cont unwind label %terminate.lpad

invoke.cont:                                      ; preds = %if.then
  br label %if.end

if.end:                                           ; preds = %invoke.cont, %entry
  ret void

terminate.lpad:                                   ; preds = %if.then
  %4 = landingpad { ptr, i32 }
          catch ptr null
  %5 = extractvalue { ptr, i32 } %4, 0
  call void @__clang_call_terminate(ptr %5) #21
  unreachable
}

; Function Attrs: mustprogress nounwind uwtable
define linkonce_odr void @_ZN5boost10shared_ptrIN8QuantLib9HullWhiteEEC2ERKS3_(ptr noundef nonnull align 8 dereferenceable(16) %this, ptr noundef nonnull align 8 dereferenceable(16) %r) unnamed_addr #3 comdat align 2 {
entry:
  %this.addr = alloca ptr, align 8
  %r.addr = alloca ptr, align 8
  store ptr %this, ptr %this.addr, align 8, !tbaa !3
  store ptr %r, ptr %r.addr, align 8, !tbaa !3
  %this1 = load ptr, ptr %this.addr, align 8
  %px = getelementptr inbounds nuw %"class.boost::shared_ptr.29", ptr %this1, i32 0, i32 0
  %0 = load ptr, ptr %r.addr, align 8, !tbaa !3
  %px2 = getelementptr inbounds nuw %"class.boost::shared_ptr.29", ptr %0, i32 0, i32 0
  %1 = load ptr, ptr %px2, align 8, !tbaa !29
  store ptr %1, ptr %px, align 8, !tbaa !29
  %pn = getelementptr inbounds nuw %"class.boost::shared_ptr.29", ptr %this1, i32 0, i32 1
  %2 = load ptr, ptr %r.addr, align 8, !tbaa !3
  %pn3 = getelementptr inbounds nuw %"class.boost::shared_ptr.29", ptr %2, i32 0, i32 1
  call void @_ZN5boost6detail12shared_countC2ERKS1_(ptr noundef nonnull align 8 dereferenceable(8) %pn, ptr noundef nonnull align 8 dereferenceable(8) %pn3) #13
  ret void
}

; Function Attrs: mustprogress uwtable
define void @_ZN8QuantLib18AnalyticH1HWEngineC2ERKN5boost10shared_ptrINS_11HestonModelEEERKNS2_INS_9HullWhiteEEEddm(ptr noundef nonnull align 8 dereferenceable(448) %this, ptr noundef nonnull align 8 dereferenceable(16) %model, ptr noundef nonnull align 8 dereferenceable(16) %hullWhiteModel, double noundef %rhoSr, double noundef %relTolerance, i64 noundef %maxEvaluations) unnamed_addr #1 align 2 personality ptr @__gxx_personality_v0 {
entry:
  %this.addr = alloca ptr, align 8
  %model.addr = alloca ptr, align 8
  %hullWhiteModel.addr = alloca ptr, align 8
  %rhoSr.addr = alloca double, align 8
  %relTolerance.addr = alloca double, align 8
  %maxEvaluations.addr = alloca i64, align 8
  %agg.tmp = alloca %"class.boost::shared_ptr.29", align 8
  %exn.slot = alloca ptr, align 8
  %ehselector.slot = alloca i32, align 4
  store ptr %this, ptr %this.addr, align 8, !tbaa !3
  store ptr %model, ptr %model.addr, align 8, !tbaa !3
  store ptr %hullWhiteModel, ptr %hullWhiteModel.addr, align 8, !tbaa !3
  store double %rhoSr, ptr %rhoSr.addr, align 8, !tbaa !14
  store double %relTolerance, ptr %relTolerance.addr, align 8, !tbaa !14
  store i64 %maxEvaluations, ptr %maxEvaluations.addr, align 8, !tbaa !16
  %this1 = load ptr, ptr %this.addr, align 8
  %0 = load ptr, ptr %model.addr, align 8, !tbaa !3
  %1 = load ptr, ptr %hullWhiteModel.addr, align 8, !tbaa !3
  call void @_ZN5boost10shared_ptrIN8QuantLib9HullWhiteEEC2ERKS3_(ptr noundef nonnull align 8 dereferenceable(16) %agg.tmp, ptr noundef nonnull align 8 dereferenceable(16) %1) #13
  %2 = load double, ptr %relTolerance.addr, align 8, !tbaa !14
  %3 = load i64, ptr %maxEvaluations.addr, align 8, !tbaa !16
  invoke void @_ZN8QuantLib29AnalyticHestonHullWhiteEngineC2ERKN5boost10shared_ptrINS_11HestonModelEEENS2_INS_9HullWhiteEEEdm(ptr noundef nonnull align 8 dereferenceable(440) %this1, ptr noundef nonnull align 8 dereferenceable(16) %0, ptr noundef %agg.tmp, double noundef %2, i64 noundef %3)
          to label %invoke.cont unwind label %lpad

invoke.cont:                                      ; preds = %entry
  call void @_ZN5boost10shared_ptrIN8QuantLib9HullWhiteEED2Ev(ptr noundef nonnull align 8 dereferenceable(16) %agg.tmp) #13
  store ptr getelementptr inbounds inrange(-16, 64) ({ [10 x ptr], [6 x ptr] }, ptr @_ZTVN8QuantLib18AnalyticH1HWEngineE, i32 0, i32 0, i32 2), ptr %this1, align 8, !tbaa !7
  %add.ptr = getelementptr inbounds i8, ptr %this1, i64 56
  store ptr getelementptr inbounds inrange(-16, 32) ({ [10 x ptr], [6 x ptr] }, ptr @_ZTVN8QuantLib18AnalyticH1HWEngineE, i32 0, i32 1, i32 2), ptr %add.ptr, align 8, !tbaa !7
  %rhoSr_ = getelementptr inbounds nuw %"class.QuantLib::AnalyticH1HWEngine", ptr %this1, i32 0, i32 1
  %4 = load double, ptr %rhoSr.addr, align 8, !tbaa !14
  store double %4, ptr %rhoSr_, align 8, !tbaa !60
  ret void

lpad:                                             ; preds = %entry
  %5 = landingpad { ptr, i32 }
          cleanup
  %6 = extractvalue { ptr, i32 } %5, 0
  store ptr %6, ptr %exn.slot, align 8
  %7 = extractvalue { ptr, i32 } %5, 1
  store i32 %7, ptr %ehselector.slot, align 4
  call void @_ZN5boost10shared_ptrIN8QuantLib9HullWhiteEED2Ev(ptr noundef nonnull align 8 dereferenceable(16) %agg.tmp) #13
  br label %eh.resume

eh.resume:                                        ; preds = %lpad
  %exn = load ptr, ptr %exn.slot, align 8
  %sel = load i32, ptr %ehselector.slot, align 4
  %lpad.val = insertvalue { ptr, i32 } poison, ptr %exn, 0
  %lpad.val2 = insertvalue { ptr, i32 } %lpad.val, i32 %sel, 1
  resume { ptr, i32 } %lpad.val2
}