; Function Attrs: mustprogress uwtable
define void @_ZN8QuantLib18AnalyticH1HWEngineC2ERKN5boost10shared_ptrINS_11HestonModelEEERKNS2_INS_9HullWhiteEEEddm(ptr noundef nonnull align 8 dereferenceable(448) %this, ptr noundef nonnull align 8 dereferenceable(16) %model, ptr nocapture noundef nonnull readonly align 8 dereferenceable(16) %hullWhiteModel, double noundef %rhoSr, double noundef %relTolerance, i64 noundef %maxEvaluations) unnamed_addr #1 align 2 personality ptr @__gxx_personality_v0 {
entry:
  %agg.tmp = alloca %"class.boost::shared_ptr.29", align 8
  %0 = load ptr, ptr %hullWhiteModel, align 8, !tbaa !42
  store ptr %0, ptr %agg.tmp, align 8, !tbaa !42
  %pn.i = getelementptr inbounds nuw i8, ptr %agg.tmp, i64 8
  %pn3.i = getelementptr inbounds nuw i8, ptr %hullWhiteModel, i64 8
  %1 = load ptr, ptr %pn3.i, align 8, !tbaa !16
  store ptr %1, ptr %pn.i, align 8, !tbaa !16
  %cmp.not.i.i = icmp eq ptr %1, null
  br i1 %cmp.not.i.i, label %_ZN5boost10shared_ptrIN8QuantLib9HullWhiteEEC2ERKS3_.exit, label %if.then.i.i

if.then.i.i:                                      ; preds = %entry
  %use_count_.i.i.i = getelementptr inbounds nuw i8, ptr %1, i64 8
  %2 = atomicrmw add ptr %use_count_.i.i.i, i32 1 monotonic, align 4
  br label %_ZN5boost10shared_ptrIN8QuantLib9HullWhiteEEC2ERKS3_.exit

_ZN5boost10shared_ptrIN8QuantLib9HullWhiteEEC2ERKS3_.exit: ; preds = %entry, %if.then.i.i
  invoke void @_ZN8QuantLib29AnalyticHestonHullWhiteEngineC2ERKN5boost10shared_ptrINS_11HestonModelEEENS2_INS_9HullWhiteEEEdm(ptr noundef nonnull align 8 dereferenceable(440) %this, ptr noundef nonnull align 8 dereferenceable(16) %model, ptr noundef nonnull %agg.tmp, double noundef %relTolerance, i64 noundef %maxEvaluations)
          to label %invoke.cont unwind label %lpad

invoke.cont:                                      ; preds = %_ZN5boost10shared_ptrIN8QuantLib9HullWhiteEEC2ERKS3_.exit
  %3 = load ptr, ptr %pn.i, align 8, !tbaa !16
  %cmp.not.i.i2 = icmp eq ptr %3, null
  br i1 %cmp.not.i.i2, label %_ZN5boost10shared_ptrIN8QuantLib9HullWhiteEED2Ev.exit, label %if.then.i.i3

if.then.i.i3:                                     ; preds = %invoke.cont
  %use_count_.i.i.i4 = getelementptr inbounds nuw i8, ptr %3, i64 8
  %4 = atomicrmw sub ptr %use_count_.i.i.i4, i32 1 acq_rel, align 4
  %cmp.i.i.i = icmp eq i32 %4, 1
  br i1 %cmp.i.i.i, label %if.then.i.i.i, label %_ZN5boost10shared_ptrIN8QuantLib9HullWhiteEED2Ev.exit

if.then.i.i.i:                                    ; preds = %if.then.i.i3
  %vtable.i.i.i = load ptr, ptr %3, align 8, !tbaa !14
  %vfn.i.i.i = getelementptr inbounds i8, ptr %vtable.i.i.i, i64 16
  %5 = load ptr, ptr %vfn.i.i.i, align 8
  invoke void %5(ptr noundef nonnull align 8 dereferenceable(16) %3)
          to label %.noexc.i.i unwind label %terminate.lpad.i.i

.noexc.i.i:                                       ; preds = %if.then.i.i.i
  %weak_count_.i.i.i.i = getelementptr inbounds nuw i8, ptr %3, i64 12
  %6 = atomicrmw sub ptr %weak_count_.i.i.i.i, i32 1 acq_rel, align 4
  %cmp.i.i.i.i = icmp eq i32 %6, 1
  br i1 %cmp.i.i.i.i, label %if.then.i.i.i.i, label %_ZN5boost10shared_ptrIN8QuantLib9HullWhiteEED2Ev.exit

if.then.i.i.i.i:                                  ; preds = %.noexc.i.i
  %vtable.i.i.i.i = load ptr, ptr %3, align 8, !tbaa !14
  %vfn.i.i.i.i = getelementptr inbounds i8, ptr %vtable.i.i.i.i, i64 24
  %7 = load ptr, ptr %vfn.i.i.i.i, align 8
  invoke void %7(ptr noundef nonnull align 8 dereferenceable(16) %3)
          to label %_ZN5boost10shared_ptrIN8QuantLib9HullWhiteEED2Ev.exit unwind label %terminate.lpad.i.i

terminate.lpad.i.i:                               ; preds = %if.then.i.i.i.i, %if.then.i.i.i
  %8 = landingpad { ptr, i32 }
          catch ptr null
  %9 = extractvalue { ptr, i32 } %8, 0
  call void @__clang_call_terminate(ptr %9) #25
  unreachable

_ZN5boost10shared_ptrIN8QuantLib9HullWhiteEED2Ev.exit: ; preds = %invoke.cont, %if.then.i.i3, %.noexc.i.i, %if.then.i.i.i.i
  store ptr getelementptr inbounds inrange(-16, 64) (i8, ptr @_ZTVN8QuantLib18AnalyticH1HWEngineE, i64 16), ptr %this, align 8, !tbaa !14
  %add.ptr = getelementptr inbounds i8, ptr %this, i64 56
  store ptr getelementptr inbounds inrange(-16, 32) (i8, ptr @_ZTVN8QuantLib18AnalyticH1HWEngineE, i64 96), ptr %add.ptr, align 8, !tbaa !14
  %rhoSr_ = getelementptr inbounds nuw i8, ptr %this, i64 440
  store double %rhoSr, ptr %rhoSr_, align 8, !tbaa !86
  ret void

lpad:                                             ; preds = %_ZN5boost10shared_ptrIN8QuantLib9HullWhiteEEC2ERKS3_.exit
  %10 = landingpad { ptr, i32 }
          cleanup
  call void @_ZN5boost10shared_ptrIN8QuantLib9HullWhiteEED2Ev(ptr noundef nonnull align 8 dereferenceable(16) %agg.tmp) #24
  resume { ptr, i32 } %10
}